target datalayout = "e-m:e-p270:32:32-p271:32:32-p272:64:64-i64:64-i128:128-f80:128-n8:16:32:64-S128"
target triple = "x86_64-pc-linux-gnu"

%struct.prov_cipher_ctx_st = type { [16 x i8], [16 x i8], [16 x i8], ptr, %union.anon, i32, i64, i64, i64, i64, i32, i8, i32, ptr, i32, i64, i32, i64, i32, ptr, ptr, ptr }
%union.anon = type { ptr }
%struct.prov_cipher_hw_chacha_aead_st = type { %struct.prov_cipher_hw_st, ptr, ptr, ptr, ptr }
%struct.prov_cipher_hw_st = type { ptr, ptr, ptr }

; Function Attrs: nounwind uwtable
define internal i32 @chacha20_poly1305_final(ptr noundef %0, ptr noundef %1, ptr noundef %2, i64 noundef %3) #0 {
  %5 = alloca i32, align 4
  %6 = alloca ptr, align 8
  %7 = alloca ptr, align 8
  %8 = alloca ptr, align 8
  %9 = alloca i64, align 8
  %10 = alloca ptr, align 8
  %11 = alloca ptr, align 8
  %12 = alloca i32, align 4
  store ptr %0, ptr %6, align 8, !tbaa !3
  store ptr %1, ptr %7, align 8, !tbaa !22
  store ptr %2, ptr %8, align 8, !tbaa !35
  store i64 %3, ptr %9, align 8, !tbaa !23
  call void @llvm.lifetime.start.p0(i64 8, ptr %10) #5
  %13 = load ptr, ptr %6, align 8, !tbaa !3
  store ptr %13, ptr %10, align 8, !tbaa !27
  call void @llvm.lifetime.start.p0(i64 8, ptr %11) #5
  %14 = load ptr, ptr %10, align 8, !tbaa !27
  %15 = getelementptr inbounds nuw %struct.prov_cipher_ctx_st, ptr %14, i32 0, i32 19
  %16 = load ptr, ptr %15, align 8, !tbaa !29
  store ptr %16, ptr %11, align 8, !tbaa !30
  %17 = call i32 @ossl_prov_is_running()
  %18 = icmp ne i32 %17, 0
  br i1 %18, label %20, label %19

19:                                               ; preds = %4
  store i32 0, ptr %5, align 4
  store i32 1, ptr %12, align 4
  br label %32

20:                                               ; preds = %4
  %21 = load ptr, ptr %11, align 8, !tbaa !30
  %22 = getelementptr inbounds nuw %struct.prov_cipher_hw_chacha_aead_st, ptr %21, i32 0, i32 1
  %23 = load ptr, ptr %22, align 8, !tbaa !37
  %24 = load ptr, ptr %10, align 8, !tbaa !27
  %25 = load ptr, ptr %7, align 8, !tbaa !22
  %26 = load ptr, ptr %8, align 8, !tbaa !35
  %27 = call i32 %23(ptr noundef %24, ptr noundef %25, ptr noundef %26, ptr noundef null, i64 noundef 0)
  %28 = icmp sle i32 %27, 0
  br i1 %28, label %29, label %30

29:                                               ; preds = %20
  store i32 0, ptr %5, align 4
  store i32 1, ptr %12, align 4
  br label %32

30:                                               ; preds = %20
  %31 = load ptr, ptr %8, align 8, !tbaa !35
  store i64 0, ptr %31, align 8, !tbaa !23
  store i32 1, ptr %5, align 4
  store i32 1, ptr %12, align 4
  br label %32

32:                                               ; preds = %30, %29, %19
  call void @llvm.lifetime.end.p0(i64 8, ptr %11) #5
  call void @llvm.lifetime.end.p0(i64 8, ptr %10) #5
  %33 = load i32, ptr %5, align 4
  ret i32 %33
}