; Function Attrs: nounwind uwtable
define internal range(i32 0, 2) i32 @chacha20_poly1305_final(ptr noundef %0, ptr noundef %1, ptr noundef %2, i64 %3) #0 {
  %5 = getelementptr inbounds nuw i8, ptr %0, i64 168
  %6 = load ptr, ptr %5, align 8, !tbaa !21
  %7 = tail call i32 @ossl_prov_is_running() #5
  %.not = icmp eq i32 %7, 0
  br i1 %.not, label %14, label %8

8:                                                ; preds = %4
  %9 = getelementptr inbounds nuw i8, ptr %6, i64 24
  %10 = load ptr, ptr %9, align 8, !tbaa !26
  %11 = tail call i32 %10(ptr noundef nonnull %0, ptr noundef %1, ptr noundef %2, ptr noundef null, i64 noundef 0) #5
  %12 = icmp slt i32 %11, 1
  br i1 %12, label %14, label %13

13:                                               ; preds = %8
  store i64 0, ptr %2, align 8, !tbaa !25
  br label %14

14:                                               ; preds = %8, %4, %13
  %.0 = phi i32 [ 1, %13 ], [ 0, %4 ], [ 0, %8 ]
  ret i32 %.0
}